target datalayout = "e-m:e-p270:32:32-p271:32:32-p272:64:64-i64:64-i128:128-f80:128-n8:16:32:64-S128"
target triple = "x86_64-pc-linux-gnu"

; Function Attrs: alwaysinline nounwind willreturn memory(none) uwtable
define internal zeroext i8 @av_clip_uint8_c(i32 noundef %0) #6 {
  %2 = alloca i8, align 1
  %3 = alloca i32, align 4
  store i32 %0, ptr %3, align 4, !tbaa !9
  %4 = load i32, ptr %3, align 4, !tbaa !9
  %5 = and i32 %4, -256
  %6 = icmp ne i32 %5, 0
  br i1 %6, label %7, label %12

7:                                                ; preds = %1
  %8 = load i32, ptr %3, align 4, !tbaa !9
  %9 = xor i32 %8, -1
  %10 = ashr i32 %9, 31
  %11 = trunc i32 %10 to i8
  store i8 %11, ptr %2, align 1
  br label %15

12:                                               ; preds = %1
  %13 = load i32, ptr %3, align 4, !tbaa !9
  %14 = trunc i32 %13 to i8
  store i8 %14, ptr %2, align 1
  br label %15

15:                                               ; preds = %12, %7
  %16 = load i8, ptr %2, align 1
  ret i8 %16
}

; Function Attrs: nounwind uwtable
define internal void @biweight_h264_pixels4_8_c(ptr noundef %0, ptr noundef %1, i64 noundef %2, i32 noundef %3, i32 noundef %4, i32 noundef %5, i32 noundef %6, i32 noundef %7) #1 {
  %9 = alloca ptr, align 8
  %10 = alloca ptr, align 8
  %11 = alloca i64, align 8
  %12 = alloca i32, align 4
  %13 = alloca i32, align 4
  %14 = alloca i32, align 4
  %15 = alloca i32, align 4
  %16 = alloca i32, align 4
  %17 = alloca i32, align 4
  %18 = alloca ptr, align 8
  %19 = alloca ptr, align 8
  store ptr %0, ptr %9, align 8, !tbaa !39
  store ptr %1, ptr %10, align 8, !tbaa !39
  store i64 %2, ptr %11, align 8, !tbaa !53
  store i32 %3, ptr %12, align 4, !tbaa !9
  store i32 %4, ptr %13, align 4, !tbaa !9
  store i32 %5, ptr %14, align 4, !tbaa !9
  store i32 %6, ptr %15, align 4, !tbaa !9
  store i32 %7, ptr %16, align 4, !tbaa !9
  call void @llvm.lifetime.start.p0(i64 4, ptr %17) #9
  call void @llvm.lifetime.start.p0(i64 8, ptr %18) #9
  %20 = load ptr, ptr %9, align 8, !tbaa !39
  store ptr %20, ptr %18, align 8, !tbaa !39
  call void @llvm.lifetime.start.p0(i64 8, ptr %19) #9
  %21 = load ptr, ptr %10, align 8, !tbaa !39
  store ptr %21, ptr %19, align 8, !tbaa !39
  %22 = load i64, ptr %11, align 8, !tbaa !53
  %23 = ashr i64 %22, 0
  store i64 %23, ptr %11, align 8, !tbaa !53
  %24 = load i32, ptr %16, align 4, !tbaa !9
  %25 = shl i32 %24, 0
  store i32 %25, ptr %16, align 4, !tbaa !9
  %26 = load i32, ptr %16, align 4, !tbaa !9
  %27 = add nsw i32 %26, 1
  %28 = or i32 %27, 1
  %29 = load i32, ptr %13, align 4, !tbaa !9
  %30 = shl i32 %28, %29
  store i32 %30, ptr %16, align 4, !tbaa !9
  store i32 0, ptr %17, align 4, !tbaa !9
  br label %31

31:                                               ; preds = %120, %8
  %32 = load i32, ptr %17, align 4, !tbaa !9
  %33 = load i32, ptr %12, align 4, !tbaa !9
  %34 = icmp slt i32 %32, %33
  br i1 %34, label %35, label %129

35:                                               ; preds = %31
  %36 = load ptr, ptr %19, align 8, !tbaa !39
  %37 = getelementptr inbounds i8, ptr %36, i64 0
  %38 = load i8, ptr %37, align 1, !tbaa !50
  %39 = zext i8 %38 to i32
  %40 = load i32, ptr %15, align 4, !tbaa !9
  %41 = mul nsw i32 %39, %40
  %42 = load ptr, ptr %18, align 8, !tbaa !39
  %43 = getelementptr inbounds i8, ptr %42, i64 0
  %44 = load i8, ptr %43, align 1, !tbaa !50
  %45 = zext i8 %44 to i32
  %46 = load i32, ptr %14, align 4, !tbaa !9
  %47 = mul nsw i32 %45, %46
  %48 = add nsw i32 %41, %47
  %49 = load i32, ptr %16, align 4, !tbaa !9
  %50 = add nsw i32 %48, %49
  %51 = load i32, ptr %13, align 4, !tbaa !9
  %52 = add nsw i32 %51, 1
  %53 = ashr i32 %50, %52
  %54 = call zeroext i8 @av_clip_uint8_c(i32 noundef %53) #10
  %55 = load ptr, ptr %18, align 8, !tbaa !39
  %56 = getelementptr inbounds i8, ptr %55, i64 0
  store i8 %54, ptr %56, align 1, !tbaa !50
  %57 = load ptr, ptr %19, align 8, !tbaa !39
  %58 = getelementptr inbounds i8, ptr %57, i64 1
  %59 = load i8, ptr %58, align 1, !tbaa !50
  %60 = zext i8 %59 to i32
  %61 = load i32, ptr %15, align 4, !tbaa !9
  %62 = mul nsw i32 %60, %61
  %63 = load ptr, ptr %18, align 8, !tbaa !39
  %64 = getelementptr inbounds i8, ptr %63, i64 1
  %65 = load i8, ptr %64, align 1, !tbaa !50
  %66 = zext i8 %65 to i32
  %67 = load i32, ptr %14, align 4, !tbaa !9
  %68 = mul nsw i32 %66, %67
  %69 = add nsw i32 %62, %68
  %70 = load i32, ptr %16, align 4, !tbaa !9
  %71 = add nsw i32 %69, %70
  %72 = load i32, ptr %13, align 4, !tbaa !9
  %73 = add nsw i32 %72, 1
  %74 = ashr i32 %71, %73
  %75 = call zeroext i8 @av_clip_uint8_c(i32 noundef %74) #10
  %76 = load ptr, ptr %18, align 8, !tbaa !39
  %77 = getelementptr inbounds i8, ptr %76, i64 1
  store i8 %75, ptr %77, align 1, !tbaa !50
  %78 = load ptr, ptr %19, align 8, !tbaa !39
  %79 = getelementptr inbounds i8, ptr %78, i64 2
  %80 = load i8, ptr %79, align 1, !tbaa !50
  %81 = zext i8 %80 to i32
  %82 = load i32, ptr %15, align 4, !tbaa !9
  %83 = mul nsw i32 %81, %82
  %84 = load ptr, ptr %18, align 8, !tbaa !39
  %85 = getelementptr inbounds i8, ptr %84, i64 2
  %86 = load i8, ptr %85, align 1, !tbaa !50
  %87 = zext i8 %86 to i32
  %88 = load i32, ptr %14, align 4, !tbaa !9
  %89 = mul nsw i32 %87, %88
  %90 = add nsw i32 %83, %89
  %91 = load i32, ptr %16, align 4, !tbaa !9
  %92 = add nsw i32 %90, %91
  %93 = load i32, ptr %13, align 4, !tbaa !9
  %94 = add nsw i32 %93, 1
  %95 = ashr i32 %92, %94
  %96 = call zeroext i8 @av_clip_uint8_c(i32 noundef %95) #10
  %97 = load ptr, ptr %18, align 8, !tbaa !39
  %98 = getelementptr inbounds i8, ptr %97, i64 2
  store i8 %96, ptr %98, align 1, !tbaa !50
  %99 = load ptr, ptr %19, align 8, !tbaa !39
  %100 = getelementptr inbounds i8, ptr %99, i64 3
  %101 = load i8, ptr %100, align 1, !tbaa !50
  %102 = zext i8 %101 to i32
  %103 = load i32, ptr %15, align 4, !tbaa !9
  %104 = mul nsw i32 %102, %103
  %105 = load ptr, ptr %18, align 8, !tbaa !39
  %106 = getelementptr inbounds i8, ptr %105, i64 3
  %107 = load i8, ptr %106, align 1, !tbaa !50
  %108 = zext i8 %107 to i32
  %109 = load i32, ptr %14, align 4, !tbaa !9
  %110 = mul nsw i32 %108, %109
  %111 = add nsw i32 %104, %110
  %112 = load i32, ptr %16, align 4, !tbaa !9
  %113 = add nsw i32 %111, %112
  %114 = load i32, ptr %13, align 4, !tbaa !9
  %115 = add nsw i32 %114, 1
  %116 = ashr i32 %113, %115
  %117 = call zeroext i8 @av_clip_uint8_c(i32 noundef %116) #10
  %118 = load ptr, ptr %18, align 8, !tbaa !39
  %119 = getelementptr inbounds i8, ptr %118, i64 3
  store i8 %117, ptr %119, align 1, !tbaa !50
  br label %120

120:                                              ; preds = %35
  %121 = load i32, ptr %17, align 4, !tbaa !9
  %122 = add nsw i32 %121, 1
  store i32 %122, ptr %17, align 4, !tbaa !9
  %123 = load i64, ptr %11, align 8, !tbaa !53
  %124 = load ptr, ptr %18, align 8, !tbaa !39
  %125 = getelementptr inbounds i8, ptr %124, i64 %123
  store ptr %125, ptr %18, align 8, !tbaa !39
  %126 = load i64, ptr %11, align 8, !tbaa !53
  %127 = load ptr, ptr %19, align 8, !tbaa !39
  %128 = getelementptr inbounds i8, ptr %127, i64 %126
  store ptr %128, ptr %19, align 8, !tbaa !39
  br label %31, !llvm.loop !93

129:                                              ; preds = %31
  call void @llvm.lifetime.end.p0(i64 8, ptr %19) #9
  call void @llvm.lifetime.end.p0(i64 8, ptr %18) #9
  call void @llvm.lifetime.end.p0(i64 4, ptr %17) #9
  ret void
}