; Function Attrs: nofree norecurse nosync nounwind memory(argmem: readwrite) uwtable
define internal void @biweight_h264_pixels4_8_c(ptr noundef captures(none) %0, ptr noundef readonly captures(none) %1, i64 noundef %2, i32 noundef %3, i32 noundef %4, i32 noundef %5, i32 noundef %6, i32 noundef %7) #1 {
  %9 = add nsw i32 %7, 1
  %10 = or i32 %9, 1
  %11 = shl i32 %10, %4
  %12 = icmp sgt i32 %3, 0
  br i1 %12, label %.lver.check, label %._crit_edge

.lver.check:                                      ; preds = %8
  %13 = add nsw i32 %4, 1
  %ident.check.not = icmp eq i64 %2, 1
  br i1 %ident.check.not, label %.ph, label %.ph.lver.orig

.ph.lver.orig:                                    ; preds = %.lver.check, %.ph.lver.orig
  %.053.lver.orig = phi ptr [ %66, %.ph.lver.orig ], [ %1, %.lver.check ]
  %.04052.lver.orig = phi ptr [ %65, %.ph.lver.orig ], [ %0, %.lver.check ]
  %.04151.lver.orig = phi i32 [ %64, %.ph.lver.orig ], [ 0, %.lver.check ]
  %14 = load i8, ptr %.053.lver.orig, align 1, !tbaa !42
  %15 = zext i8 %14 to i32
  %16 = mul nsw i32 %6, %15
  %17 = load i8, ptr %.04052.lver.orig, align 1, !tbaa !42
  %18 = zext i8 %17 to i32
  %19 = mul nsw i32 %5, %18
  %20 = add i32 %16, %11
  %21 = add i32 %20, %19
  %22 = ashr i32 %21, %13
  %.not.i.lver.orig = icmp ult i32 %22, 256
  %isnotneg.i.lver.orig = icmp sgt i32 %22, -1
  %23 = sext i1 %isnotneg.i.lver.orig to i8
  %24 = trunc nuw i32 %22 to i8
  %.0.i.lver.orig = select i1 %.not.i.lver.orig, i8 %24, i8 %23
  store i8 %.0.i.lver.orig, ptr %.04052.lver.orig, align 1, !tbaa !42
  %25 = getelementptr inbounds nuw i8, ptr %.053.lver.orig, i64 1
  %26 = load i8, ptr %25, align 1, !tbaa !42
  %27 = zext i8 %26 to i32
  %28 = mul nsw i32 %6, %27
  %29 = getelementptr inbounds nuw i8, ptr %.04052.lver.orig, i64 1
  %30 = load i8, ptr %29, align 1, !tbaa !42
  %31 = zext i8 %30 to i32
  %32 = mul nsw i32 %5, %31
  %33 = add i32 %28, %11
  %34 = add i32 %33, %32
  %35 = ashr i32 %34, %13
  %.not.i42.lver.orig = icmp ult i32 %35, 256
  %isnotneg.i43.lver.orig = icmp sgt i32 %35, -1
  %36 = sext i1 %isnotneg.i43.lver.orig to i8
  %37 = trunc nuw i32 %35 to i8
  %.0.i44.lver.orig = select i1 %.not.i42.lver.orig, i8 %37, i8 %36
  store i8 %.0.i44.lver.orig, ptr %29, align 1, !tbaa !42
  %38 = getelementptr inbounds nuw i8, ptr %.053.lver.orig, i64 2
  %39 = load i8, ptr %38, align 1, !tbaa !42
  %40 = zext i8 %39 to i32
  %41 = mul nsw i32 %6, %40
  %42 = getelementptr inbounds nuw i8, ptr %.04052.lver.orig, i64 2
  %43 = load i8, ptr %42, align 1, !tbaa !42
  %44 = zext i8 %43 to i32
  %45 = mul nsw i32 %5, %44
  %46 = add i32 %41, %11
  %47 = add i32 %46, %45
  %48 = ashr i32 %47, %13
  %.not.i45.lver.orig = icmp ult i32 %48, 256
  %isnotneg.i46.lver.orig = icmp sgt i32 %48, -1
  %49 = sext i1 %isnotneg.i46.lver.orig to i8
  %50 = trunc nuw i32 %48 to i8
  %.0.i47.lver.orig = select i1 %.not.i45.lver.orig, i8 %50, i8 %49
  store i8 %.0.i47.lver.orig, ptr %42, align 1, !tbaa !42
  %51 = getelementptr inbounds nuw i8, ptr %.053.lver.orig, i64 3
  %52 = load i8, ptr %51, align 1, !tbaa !42
  %53 = zext i8 %52 to i32
  %54 = mul nsw i32 %6, %53
  %55 = getelementptr inbounds nuw i8, ptr %.04052.lver.orig, i64 3
  %56 = load i8, ptr %55, align 1, !tbaa !42
  %57 = zext i8 %56 to i32
  %58 = mul nsw i32 %5, %57
  %59 = add i32 %54, %11
  %60 = add i32 %59, %58
  %61 = ashr i32 %60, %13
  %.not.i48.lver.orig = icmp ult i32 %61, 256
  %isnotneg.i49.lver.orig = icmp sgt i32 %61, -1
  %62 = sext i1 %isnotneg.i49.lver.orig to i8
  %63 = trunc nuw i32 %61 to i8
  %.0.i50.lver.orig = select i1 %.not.i48.lver.orig, i8 %63, i8 %62
  store i8 %.0.i50.lver.orig, ptr %55, align 1, !tbaa !42
  %64 = add nuw nsw i32 %.04151.lver.orig, 1
  %65 = getelementptr inbounds i8, ptr %.04052.lver.orig, i64 %2
  %66 = getelementptr inbounds i8, ptr %.053.lver.orig, i64 %2
  %exitcond.not.lver.orig = icmp eq i32 %64, %3
  br i1 %exitcond.not.lver.orig, label %._crit_edge, label %.ph.lver.orig, !llvm.loop !107

.ph:                                              ; preds = %.lver.check
  %scevgep = getelementptr i8, ptr %0, i64 2
  %load_initial = load i8, ptr %scevgep, align 1
  br label %67

67:                                               ; preds = %.ph, %67
  %store_forwarded = phi i8 [ %load_initial, %.ph ], [ %.0.i50, %67 ]
  %.053 = phi ptr [ %1, %.ph ], [ %119, %67 ]
  %.04052 = phi ptr [ %0, %.ph ], [ %118, %67 ]
  %.04151 = phi i32 [ 0, %.ph ], [ %117, %67 ]
  %68 = load i8, ptr %.053, align 1, !tbaa !42
  %69 = zext i8 %68 to i32
  %70 = mul nsw i32 %6, %69
  %71 = load i8, ptr %.04052, align 1, !tbaa !42
  %72 = zext i8 %71 to i32
  %73 = mul nsw i32 %5, %72
  %74 = add i32 %70, %11
  %75 = add i32 %74, %73
  %76 = ashr i32 %75, %13
  %.not.i = icmp ult i32 %76, 256
  %isnotneg.i = icmp sgt i32 %76, -1
  %77 = sext i1 %isnotneg.i to i8
  %78 = trunc nuw i32 %76 to i8
  %.0.i = select i1 %.not.i, i8 %78, i8 %77
  store i8 %.0.i, ptr %.04052, align 1, !tbaa !42
  %79 = getelementptr inbounds nuw i8, ptr %.053, i64 1
  %80 = load i8, ptr %79, align 1, !tbaa !42
  %81 = zext i8 %80 to i32
  %82 = mul nsw i32 %6, %81
  %83 = getelementptr inbounds nuw i8, ptr %.04052, i64 1
  %84 = load i8, ptr %83, align 1, !tbaa !42
  %85 = zext i8 %84 to i32
  %86 = mul nsw i32 %5, %85
  %87 = add i32 %82, %11
  %88 = add i32 %87, %86
  %89 = ashr i32 %88, %13
  %.not.i42 = icmp ult i32 %89, 256
  %isnotneg.i43 = icmp sgt i32 %89, -1
  %90 = sext i1 %isnotneg.i43 to i8
  %91 = trunc nuw i32 %89 to i8
  %.0.i44 = select i1 %.not.i42, i8 %91, i8 %90
  store i8 %.0.i44, ptr %83, align 1, !tbaa !42
  %92 = getelementptr inbounds nuw i8, ptr %.053, i64 2
  %93 = load i8, ptr %92, align 1, !tbaa !42
  %94 = zext i8 %93 to i32
  %95 = mul nsw i32 %6, %94
  %96 = getelementptr inbounds nuw i8, ptr %.04052, i64 2
  %97 = zext i8 %store_forwarded to i32
  %98 = mul nsw i32 %5, %97
  %99 = add i32 %95, %11
  %100 = add i32 %99, %98
  %101 = ashr i32 %100, %13
  %.not.i45 = icmp ult i32 %101, 256
  %isnotneg.i46 = icmp sgt i32 %101, -1
  %102 = sext i1 %isnotneg.i46 to i8
  %103 = trunc nuw i32 %101 to i8
  %.0.i47 = select i1 %.not.i45, i8 %103, i8 %102
  store i8 %.0.i47, ptr %96, align 1, !tbaa !42
  %104 = getelementptr inbounds nuw i8, ptr %.053, i64 3
  %105 = load i8, ptr %104, align 1, !tbaa !42
  %106 = zext i8 %105 to i32
  %107 = mul nsw i32 %6, %106
  %108 = getelementptr inbounds nuw i8, ptr %.04052, i64 3
  %109 = load i8, ptr %108, align 1, !tbaa !42
  %110 = zext i8 %109 to i32
  %111 = mul nsw i32 %5, %110
  %112 = add i32 %107, %11
  %113 = add i32 %112, %111
  %114 = ashr i32 %113, %13
  %.not.i48 = icmp ult i32 %114, 256
  %isnotneg.i49 = icmp sgt i32 %114, -1
  %115 = sext i1 %isnotneg.i49 to i8
  %116 = trunc nuw i32 %114 to i8
  %.0.i50 = select i1 %.not.i48, i8 %116, i8 %115
  store i8 %.0.i50, ptr %108, align 1, !tbaa !42
  %117 = add nuw nsw i32 %.04151, 1
  %118 = getelementptr inbounds nuw i8, ptr %.04052, i64 %2
  %119 = getelementptr inbounds nuw i8, ptr %.053, i64 %2
  %exitcond.not = icmp eq i32 %117, %3
  br i1 %exitcond.not, label %._crit_edge, label %67, !llvm.loop !107

._crit_edge:                                      ; preds = %.ph.lver.orig, %67, %8
  ret void
}